target datalayout = "e-m:e-p270:32:32-p271:32:32-p272:64:64-i64:64-i128:128-f80:128-n8:16:32:64-S128"
target triple = "x86_64-pc-linux-gnu"

%struct.anon = type { i32, i32, i32, i32, i32, i32, i32, %struct.replaygain_synthesis_spec_t, i32, i32, i32, i32, i32, i32, i64, i32, i32, i32, i32, i32, i32, i32, i32, i32, i32, i32, i32, i32, i32, i32, i32, ptr, ptr, %struct.analysis_options, i32, i64, [64 x %struct.compression_setting_t], i32, ptr, ptr, ptr, i32, i32, i32, i32, i32, i64, [5000 x i8], i32, ptr, i32, i32, i32, i32, i32, ptr, ptr, [64 x ptr], i32, %struct.anon.0 }
%struct.replaygain_synthesis_spec_t = type { i32, i32, i32, i32, double }
%struct.analysis_options = type { i32, i32 }
%struct.compression_setting_t = type { i32, %union.anon }
%union.anon = type { ptr }
%struct.anon.0 = type { i32, i32, i32, i32 }

@option_values = internal global %struct.anon zeroinitializer, align 8
@.str.381 = private unnamed_addr constant [30 x i8] c"too many compression settings\00", align 1

; Function Attrs: nounwind sspstrong uwtable
define internal void @add_compression_setting_bool(i32 noundef %0, i32 noundef %1) #0 {
  %3 = alloca i32, align 4
  %4 = alloca i32, align 4
  store i32 %0, ptr %3, align 4, !tbaa !4
  store i32 %1, ptr %4, align 4, !tbaa !4
  %5 = load i64, ptr getelementptr inbounds nuw (%struct.anon, ptr @option_values, i32 0, i32 35), align 8, !tbaa !65
  %6 = icmp uge i64 %5, 64
  br i1 %6, label %7, label %8

7:                                                ; preds = %2
  call void @die(ptr noundef @.str.381)
  br label %8

8:                                                ; preds = %7, %2
  %9 = load i32, ptr %3, align 4, !tbaa !4
  %10 = load i64, ptr getelementptr inbounds nuw (%struct.anon, ptr @option_values, i32 0, i32 35), align 8, !tbaa !65
  %11 = getelementptr inbounds nuw [64 x %struct.compression_setting_t], ptr getelementptr inbounds nuw (%struct.anon, ptr @option_values, i32 0, i32 36), i64 0, i64 %10
  %12 = getelementptr inbounds nuw %struct.compression_setting_t, ptr %11, i32 0, i32 0
  store i32 %9, ptr %12, align 8, !tbaa !66
  %13 = load i32, ptr %4, align 4, !tbaa !4
  %14 = load i64, ptr getelementptr inbounds nuw (%struct.anon, ptr @option_values, i32 0, i32 35), align 8, !tbaa !65
  %15 = getelementptr inbounds nuw [64 x %struct.compression_setting_t], ptr getelementptr inbounds nuw (%struct.anon, ptr @option_values, i32 0, i32 36), i64 0, i64 %14
  %16 = getelementptr inbounds nuw %struct.compression_setting_t, ptr %15, i32 0, i32 1
  store i32 %13, ptr %16, align 8, !tbaa !68
  %17 = load i64, ptr getelementptr inbounds nuw (%struct.anon, ptr @option_values, i32 0, i32 35), align 8, !tbaa !65
  %18 = add i64 %17, 1
  store i64 %18, ptr getelementptr inbounds nuw (%struct.anon, ptr @option_values, i32 0, i32 35), align 8, !tbaa !65
  ret void
}