; Function Attrs: nounwind sspstrong uwtable
define internal fastcc void @add_compression_setting_bool(i32 noundef range(i32 2, 10) %0, i32 noundef range(i32 0, 2) %1) unnamed_addr #0 {
  %3 = load i64, ptr getelementptr inbounds nuw (i8, ptr @option_values, i64 184), align 8, !tbaa !28
  %4 = icmp ugt i64 %3, 63
  br i1 %4, label %5, label %6

5:                                                ; preds = %2
  tail call fastcc void @die(ptr noundef nonnull @.str.381)
  unreachable

6:                                                ; preds = %2
  %7 = getelementptr inbounds nuw [64 x %struct.compression_setting_t], ptr getelementptr inbounds nuw (i8, ptr @option_values, i64 192), i64 0, i64 %3
  store i32 %0, ptr %7, align 8, !tbaa !29
  %.idx = shl nuw nsw i64 %3, 4
  %.offs = or disjoint i64 %.idx, 8
  %8 = getelementptr inbounds nuw i8, ptr getelementptr inbounds nuw (i8, ptr @option_values, i64 192), i64 %.offs
  store i32 %1, ptr %8, align 8, !tbaa !31
  %9 = add nuw nsw i64 %3, 1
  store i64 %9, ptr getelementptr inbounds nuw (i8, ptr @option_values, i64 184), align 8, !tbaa !28
  ret void
}